; Function Attrs: nounwind uwtable
define dso_local void @brininsertcleanup(ptr readnone captures(none) %0, ptr noundef readonly captures(none) %1) #0 {
  %3 = getelementptr inbounds nuw i8, ptr %1, i64 184
  %4 = load ptr, ptr %3, align 8
  %5 = icmp eq ptr %4, null
  br i1 %5, label %8, label %6

6:                                                ; preds = %2
  %7 = load ptr, ptr %4, align 8
  tail call void @brinRevmapTerminate(ptr noundef %7) #10
  tail call void @llvm.memset.p0.i64(ptr noundef nonnull align 8 dereferenceable(16) %4, i8 0, i64 16, i1 false)
  br label %8

8:                                                ; preds = %2, %6
  ret void
}